; Function Attrs: mustprogress uwtable
define hidden noundef i64 @_ZNK3fmt3v114file4sizeEv(ptr noundef nonnull readonly align 4 captures(none) dereferenceable(4) %0) local_unnamed_addr #6 align 2 personality ptr @__gxx_personality_v0 {
  %2 = alloca %"struct.fmt::v11::detail::format_arg_store.99", align 16
  %3 = alloca %struct.stat, align 8
  call void @llvm.lifetime.start.p0(i64 144, ptr nonnull %3) #29
  call void @llvm.memset.p0.i64(ptr noundef nonnull align 8 dereferenceable(144) %3, i8 0, i64 144, i1 false)
  %4 = load i32, ptr %0, align 4, !tbaa !24
  %5 = call i32 @fstat(i32 noundef %4, ptr noundef nonnull %3) #29
  %.b.i = load i1, ptr @_ZN12_GLOBAL__N_19fstat_simE, align 4
  br i1 %.b.i, label %6, label %_ZN4test5fstatEiP4stat.exit

6:                                                ; preds = %1
  %7 = getelementptr inbounds nuw i8, ptr %3, i64 48
  store i64 9223372036854775807, ptr %7, align 8, !tbaa !33
  br label %_ZN4test5fstatEiP4stat.exit

_ZN4test5fstatEiP4stat.exit:                      ; preds = %1, %6
  %8 = icmp eq i32 %5, -1
  br i1 %8, label %9, label %16

9:                                                ; preds = %_ZN4test5fstatEiP4stat.exit
  %10 = tail call ptr @__cxa_allocate_exception(i64 32) #29
  %11 = tail call ptr @__errno_location() #28
  %12 = load i32, ptr %11, align 4, !tbaa !10
  call void @llvm.lifetime.start.p0(i64 16, ptr nonnull %2) #29, !noalias !37
  invoke void @_ZN3fmt3v1113vsystem_errorEiNS0_17basic_string_viewIcEENS0_17basic_format_argsINS0_7contextEEE(ptr dead_on_unwind writable sret(%"class.std::system_error") align 8 %10, i32 noundef %12, ptr nonnull @.str.41, i64 26, i64 0, ptr nonnull %2)
          to label %13 unwind label %14

13:                                               ; preds = %9
  call void @llvm.lifetime.end.p0(i64 16, ptr nonnull %2) #29, !noalias !37
  call void @__cxa_throw(ptr %10, ptr nonnull @_ZTISt12system_error, ptr nonnull @_ZNSt12system_errorD1Ev) #31
  unreachable

14:                                               ; preds = %9
  %15 = landingpad { ptr, i32 }
          cleanup
  call void @__cxa_free_exception(ptr %10) #29
  call void @llvm.lifetime.end.p0(i64 144, ptr nonnull %3) #29
  resume { ptr, i32 } %15

16:                                               ; preds = %_ZN4test5fstatEiP4stat.exit
  %17 = getelementptr inbounds nuw i8, ptr %3, i64 48
  %18 = load i64, ptr %17, align 8, !tbaa !33
  call void @llvm.lifetime.end.p0(i64 144, ptr nonnull %3) #29
  ret i64 %18
}